; Function Attrs: mustprogress nofree norecurse nosync nounwind willreturn memory(read, inaccessiblemem: none) uwtable
define internal i64 @H5O__drvinfo_size(ptr readnone captures(none) %0, i1 zeroext %1, ptr noundef readonly captures(none) %2) #2 {
  %4 = load i8, ptr @H5O_init_g, align 1, !tbaa !3, !range !7, !noundef !8
  %5 = trunc nuw i8 %4 to i1
  %6 = load i8, ptr @H5_libterm_g, align 1, !range !7
  %7 = trunc nuw i8 %6 to i1
  %8 = xor i1 %7, true
  %9 = select i1 %5, i1 true, i1 %8
  br i1 %9, label %10, label %14, !prof !9

10:                                               ; preds = %3
  %11 = getelementptr inbounds nuw i8, ptr %2, i64 264
  %12 = load i64, ptr %11, align 8, !tbaa !13
  %13 = add i64 %12, 11
  br label %14

14:                                               ; preds = %10, %3
  %.0 = phi i64 [ %13, %10 ], [ 0, %3 ]
  ret i64 %.0
}